(lp0
(S'cppflags'
p1
ccopy_reg
_reconstructor
p2
(cino.utils
SpaceList
p3
c__builtin__
list
p4
(lp5
S'-mmcu=atmega168'
p6
aS'-DF_CPU=16000000L'
p7
aS'-DARDUINO=101'
p8
aS'-I/usr/share/arduino/hardware/arduino/cores/arduino'
p9
aS'-ffunction-sections'
p10
aS'-fdata-sections'
p11
aS'-g'
p12
aS'-Os'
p13
aS'-w'
p14
aS'-I/usr/share/arduino/hardware/arduino/variants/standard'
p15
aS'-I/usr/share/arduino/hardware/arduino/cores/arduino'
p16
atp17
Rp18
tp19
a(S'cc'
p20
S'/usr/bin/avr-gcc'
p21
tp22
a(S'build_dir'
p23
S'.build/diecimila'
p24
tp25
a(S'avrdude'
p26
S'/usr/share/arduino/hardware/tools/avrdude'
p27
tp28
a(S'ar'
p29
S'/usr/bin/avr-ar'
p30
tp31
a(S'names'
p32
(dp33
S'cpp'
p34
S'%s.cpp'
p35
sS'obj'
p36
S'%s.o'
p37
sS'lib'
p38
S'lib%s.a'
p39
sS'deps'
p40
S'%s.d'
p41
stp42
a(S'ldflags'
p43
g2
(g3
g4
(lp44
g6
aS'-Wl,-Os'
p45
aS'-Wl,--gc-sections'
p46
atp47
Rp48
tp49
a(S'arduino_lib_version'
p50
g2
(cino.environment
Version
p51
c__builtin__
tuple
p52
(I1
I0
I1
tp53
tp54
Rp55
tp56
a(S'objcopy'
p57
S'/usr/bin/avr-objcopy'
p58
tp59
a(S'board_models'
p60
cino.environment
BoardModels
p61
((lp62
(lp63
S'uno'
p64
a(dp65
S'bootloader'
p66
(dp67
S'extended_fuses'
p68
S'0x05'
p69
sS'high_fuses'
p70
S'0xde'
p71
sS'low_fuses'
p72
S'0xff'
p73
sS'lock_bits'
p74
S'0x0F'
p75
sS'file'
p76
S'optiboot_atmega328.hex'
p77
sS'path'
p78
S'optiboot'
p79
sS'unlock_bits'
p80
S'0x3F'
p81
ssS'upload'
p82
(dp83
S'speed'
p84
S'115200'
p85
sS'maximum_size'
p86
S'32256'
p87
sS'protocol'
p88
S'arduino'
p89
ssS'build'
p90
(dp91
S'core'
p92
S'arduino'
p93
sS'mcu'
p94
S'atmega328p'
p95
sS'f_cpu'
p96
S'16000000L'
p97
sS'variant'
p98
S'standard'
p99
ssS'name'
p100
S'Arduino Uno'
p101
sS'_coredir'
p102
S'/usr/share/arduino/hardware/arduino'
p103
saa(lp104
S'atmega328'
p105
a(dp106
S'bootloader'
p107
(dp108
S'extended_fuses'
p109
S'0x05'
p110
sS'high_fuses'
p111
S'0xDA'
p112
sS'low_fuses'
p113
S'0xFF'
p114
sS'lock_bits'
p115
S'0x0F'
p116
sS'file'
p117
S'ATmegaBOOT_168_atmega328.hex'
p118
sS'path'
p119
S'atmega'
p120
sS'unlock_bits'
p121
S'0x3F'
p122
ssS'upload'
p123
(dp124
S'speed'
p125
S'57600'
p126
sS'maximum_size'
p127
S'30720'
p128
sS'protocol'
p129
S'arduino'
p130
ssS'build'
p131
(dp132
S'core'
p133
S'arduino'
p134
sS'mcu'
p135
S'atmega328p'
p136
sS'f_cpu'
p137
S'16000000L'
p138
sS'variant'
p139
S'standard'
p140
ssS'name'
p141
S'Arduino Duemilanove w/ ATmega328'
p142
sg102
S'/usr/share/arduino/hardware/arduino'
p143
saa(lp144
S'diecimila'
p145
a(dp146
S'bootloader'
p147
(dp148
S'extended_fuses'
p149
S'0x00'
p150
sS'high_fuses'
p151
S'0xdd'
p152
sS'low_fuses'
p153
S'0xff'
p154
sS'lock_bits'
p155
S'0x0F'
p156
sS'file'
p157
S'ATmegaBOOT_168_diecimila.hex'
p158
sS'path'
p159
S'atmega'
p160
sS'unlock_bits'
p161
S'0x3F'
p162
ssS'upload'
p163
(dp164
S'speed'
p165
S'19200'
p166
sS'maximum_size'
p167
S'14336'
p168
sS'protocol'
p169
S'arduino'
p170
ssS'build'
p171
(dp172
S'core'
p173
S'arduino'
p174
sS'mcu'
p175
S'atmega168'
p176
sS'f_cpu'
p177
S'16000000L'
p178
sS'variant'
p179
S'standard'
p180
ssS'name'
p181
S'Arduino Diecimila or Duemilanove w/ ATmega168'
p182
sg102
S'/usr/share/arduino/hardware/arduino'
p183
saa(lp184
S'nano328'
p185
a(dp186
S'bootloader'
p187
(dp188
S'extended_fuses'
p189
S'0x05'
p190
sS'high_fuses'
p191
S'0xDA'
p192
sS'low_fuses'
p193
S'0xFF'
p194
sS'lock_bits'
p195
S'0x0F'
p196
sS'file'
p197
S'ATmegaBOOT_168_atmega328.hex'
p198
sS'path'
p199
S'atmega'
p200
sS'unlock_bits'
p201
S'0x3F'
p202
ssS'upload'
p203
(dp204
S'speed'
p205
S'57600'
p206
sS'maximum_size'
p207
S'30720'
p208
sS'protocol'
p209
S'arduino'
p210
ssS'build'
p211
(dp212
S'core'
p213
S'arduino'
p214
sS'mcu'
p215
S'atmega328p'
p216
sS'f_cpu'
p217
S'16000000L'
p218
sS'variant'
p219
S'eightanaloginputs'
p220
ssS'name'
p221
S'Arduino Nano w/ ATmega328'
p222
sg102
S'/usr/share/arduino/hardware/arduino'
p223
saa(lp224
S'nano'
p225
a(dp226
S'bootloader'
p227
(dp228
S'extended_fuses'
p229
S'0x00'
p230
sS'high_fuses'
p231
S'0xdd'
p232
sS'low_fuses'
p233
S'0xff'
p234
sS'lock_bits'
p235
S'0x0F'
p236
sS'file'
p237
S'ATmegaBOOT_168_diecimila.hex'
p238
sS'path'
p239
S'atmega'
p240
sS'unlock_bits'
p241
S'0x3F'
p242
ssS'upload'
p243
(dp244
S'speed'
p245
S'19200'
p246
sS'maximum_size'
p247
S'14336'
p248
sS'protocol'
p249
S'arduino'
p250
ssS'build'
p251
(dp252
S'core'
p253
S'arduino'
p254
sS'mcu'
p255
S'atmega168'
p256
sS'f_cpu'
p257
S'16000000L'
p258
sS'variant'
p259
S'eightanaloginputs'
p260
ssS'name'
p261
S'Arduino Nano w/ ATmega168'
p262
sg102
S'/usr/share/arduino/hardware/arduino'
p263
saa(lp264
S'mega2560'
p265
a(dp266
S'bootloader'
p267
(dp268
S'extended_fuses'
p269
S'0xFD'
p270
sS'high_fuses'
p271
S'0xD8'
p272
sS'low_fuses'
p273
S'0xFF'
p274
sS'lock_bits'
p275
S'0x0F'
p276
sS'file'
p277
S'stk500boot_v2_mega2560.hex'
p278
sS'path'
p279
S'stk500v2'
p280
sS'unlock_bits'
p281
S'0x3F'
p282
ssS'upload'
p283
(dp284
S'speed'
p285
S'115200'
p286
sS'maximum_size'
p287
S'258048'
p288
sS'protocol'
p289
S'stk500v2'
p290
ssS'build'
p291
(dp292
S'core'
p293
S'arduino'
p294
sS'mcu'
p295
S'atmega2560'
p296
sS'f_cpu'
p297
S'16000000L'
p298
sS'variant'
p299
S'mega'
p300
ssS'name'
p301
S'Arduino Mega 2560 or Mega ADK'
p302
sg102
S'/usr/share/arduino/hardware/arduino'
p303
saa(lp304
S'mega'
p305
a(dp306
S'bootloader'
p307
(dp308
S'extended_fuses'
p309
S'0xF5'
p310
sS'high_fuses'
p311
S'0xDA'
p312
sS'low_fuses'
p313
S'0xFF'
p314
sS'lock_bits'
p315
S'0x0F'
p316
sS'file'
p317
S'ATmegaBOOT_168_atmega1280.hex'
p318
sS'path'
p319
S'atmega'
p320
sS'unlock_bits'
p321
S'0x3F'
p322
ssS'upload'
p323
(dp324
S'speed'
p325
S'57600'
p326
sS'maximum_size'
p327
S'126976'
p328
sS'protocol'
p329
S'arduino'
p330
ssS'build'
p331
(dp332
S'core'
p333
S'arduino'
p334
sS'mcu'
p335
S'atmega1280'
p336
sS'f_cpu'
p337
S'16000000L'
p338
sS'variant'
p339
S'mega'
p340
ssS'name'
p341
S'Arduino Mega (ATmega1280)'
p342
sg102
S'/usr/share/arduino/hardware/arduino'
p343
saa(lp344
S'leonardo'
p345
a(dp346
S'bootloader'
p347
(dp348
S'extended_fuses'
p349
S'0xcb'
p350
sS'high_fuses'
p351
S'0xd8'
p352
sS'low_fuses'
p353
S'0xff'
p354
sS'lock_bits'
p355
S'0x2F'
p356
sS'file'
p357
S'Caterina-Leonardo.hex'
p358
sS'path'
p359
S'caterina'
p360
sS'unlock_bits'
p361
S'0x3F'
p362
ssS'upload'
p363
(dp364
S'speed'
p365
S'57600'
p366
sS'maximum_size'
p367
S'28672'
p368
sS'protocol'
p369
S'avr109'
p370
sS'disable_flushing'
p371
S'true'
p372
ssS'build'
p373
(dp374
S'core'
p375
S'arduino'
p376
sS'f_cpu'
p377
S'16000000L'
p378
sS'vid'
p379
S'0x2341'
p380
sS'pid'
p381
S'0x8036'
p382
sS'variant'
p383
S'leonardo'
p384
sS'mcu'
p385
S'atmega32u4'
p386
ssS'name'
p387
S'Arduino Leonardo'
p388
sg102
S'/usr/share/arduino/hardware/arduino'
p389
saa(lp390
S'mini328'
p391
a(dp392
S'bootloader'
p393
(dp394
S'extended_fuses'
p395
S'0x05'
p396
sS'high_fuses'
p397
S'0xd8'
p398
sS'low_fuses'
p399
S'0xff'
p400
sS'lock_bits'
p401
S'0x0F'
p402
sS'file'
p403
S'optiboot_atmega328-Mini.hex'
p404
sS'path'
p405
S'optiboot'
p406
sS'unlock_bits'
p407
S'0x3F'
p408
ssS'upload'
p409
(dp410
S'speed'
p411
S'115200'
p412
sS'maximum_size'
p413
S'28672'
p414
sS'protocol'
p415
S'arduino'
p416
ssS'build'
p417
(dp418
S'core'
p419
S'arduino'
p420
sS'mcu'
p421
S'atmega328p'
p422
sS'f_cpu'
p423
S'16000000L'
p424
sS'variant'
p425
S'eightanaloginputs'
p426
ssS'name'
p427
S'Arduino Mini w/ ATmega328'
p428
sg102
S'/usr/share/arduino/hardware/arduino'
p429
saa(lp430
S'mini'
p431
a(dp432
S'bootloader'
p433
(dp434
S'extended_fuses'
p435
S'0x00'
p436
sS'high_fuses'
p437
S'0xdd'
p438
sS'low_fuses'
p439
S'0xff'
p440
sS'lock_bits'
p441
S'0x0F'
p442
sS'file'
p443
S'ATmegaBOOT_168_ng.hex'
p444
sS'path'
p445
S'atmega'
p446
sS'unlock_bits'
p447
S'0x3F'
p448
ssS'upload'
p449
(dp450
S'speed'
p451
S'19200'
p452
sS'maximum_size'
p453
S'14336'
p454
sS'protocol'
p455
S'arduino'
p456
ssS'build'
p457
(dp458
S'core'
p459
S'arduino'
p460
sS'mcu'
p461
S'atmega168'
p462
sS'f_cpu'
p463
S'16000000L'
p464
sS'variant'
p465
S'eightanaloginputs'
p466
ssS'name'
p467
S'Arduino Mini w/ ATmega168'
p468
sg102
S'/usr/share/arduino/hardware/arduino'
p469
saa(lp470
S'ethernet'
p471
a(dp472
S'bootloader'
p473
(dp474
S'extended_fuses'
p475
S'0x05'
p476
sS'high_fuses'
p477
S'0xde'
p478
sS'low_fuses'
p479
S'0xff'
p480
sS'lock_bits'
p481
S'0x0F'
p482
sS'file'
p483
S'optiboot_atmega328.hex'
p484
sS'path'
p485
S'optiboot'
p486
sS'unlock_bits'
p487
S'0x3F'
p488
ssS'upload'
p489
(dp490
S'speed'
p491
S'115200'
p492
sS'maximum_size'
p493
S'32256'
p494
sS'protocol'
p495
S'arduino'
p496
ssS'build'
p497
(dp498
S'f_cpu'
p499
S'16000000L'
p500
sS'mcu'
p501
S'atmega328p'
p502
sS'variant'
p503
S'standard'
p504
sS'core'
p505
S'arduino'
p506
ssS'name'
p507
S'Arduino Ethernet'
p508
sg102
S'/usr/share/arduino/hardware/arduino'
p509
saa(lp510
S'fio'
p511
a(dp512
S'bootloader'
p513
(dp514
S'extended_fuses'
p515
S'0x05'
p516
sS'high_fuses'
p517
S'0xDA'
p518
sS'low_fuses'
p519
S'0xFF'
p520
sS'lock_bits'
p521
S'0x0F'
p522
sS'file'
p523
S'ATmegaBOOT_168_atmega328_pro_8MHz.hex'
p524
sS'path'
p525
S'arduino:atmega'
p526
sS'unlock_bits'
p527
S'0x3F'
p528
ssS'upload'
p529
(dp530
S'speed'
p531
S'57600'
p532
sS'maximum_size'
p533
S'30720'
p534
sS'protocol'
p535
S'arduino'
p536
ssS'build'
p537
(dp538
S'core'
p539
S'arduino'
p540
sS'mcu'
p541
S'atmega328p'
p542
sS'f_cpu'
p543
S'8000000L'
p544
sS'variant'
p545
S'eightanaloginputs'
p546
ssS'name'
p547
S'Arduino Fio'
p548
sg102
S'/usr/share/arduino/hardware/arduino'
p549
saa(lp550
S'bt328'
p551
a(dp552
S'bootloader'
p553
(dp554
S'extended_fuses'
p555
S'0x05'
p556
sS'high_fuses'
p557
S'0xd8'
p558
sS'low_fuses'
p559
S'0xff'
p560
sS'lock_bits'
p561
S'0x0F'
p562
sS'file'
p563
S'ATmegaBOOT_168_atmega328_bt.hex'
p564
sS'path'
p565
S'bt'
p566
sS'unlock_bits'
p567
S'0x3F'
p568
ssS'upload'
p569
(dp570
S'speed'
p571
S'19200'
p572
sS'maximum_size'
p573
S'28672'
p574
sS'protocol'
p575
S'arduino'
p576
sS'disable_flushing'
p577
S'true'
p578
ssS'build'
p579
(dp580
S'core'
p581
S'arduino'
p582
sS'mcu'
p583
S'atmega328p'
p584
sS'f_cpu'
p585
S'16000000L'
p586
sS'variant'
p587
S'eightanaloginputs'
p588
ssS'name'
p589
S'Arduino BT w/ ATmega328'
p590
sg102
S'/usr/share/arduino/hardware/arduino'
p591
saa(lp592
S'bt'
p593
a(dp594
S'bootloader'
p595
(dp596
S'extended_fuses'
p597
S'0x00'
p598
sS'high_fuses'
p599
S'0xdd'
p600
sS'low_fuses'
p601
S'0xff'
p602
sS'lock_bits'
p603
S'0x0F'
p604
sS'file'
p605
S'ATmegaBOOT_168.hex'
p606
sS'path'
p607
S'bt'
p608
sS'unlock_bits'
p609
S'0x3F'
p610
ssS'upload'
p611
(dp612
S'speed'
p613
S'19200'
p614
sS'maximum_size'
p615
S'14336'
p616
sS'protocol'
p617
S'arduino'
p618
sS'disable_flushing'
p619
S'true'
p620
ssS'build'
p621
(dp622
S'core'
p623
S'arduino'
p624
sS'mcu'
p625
S'atmega168'
p626
sS'f_cpu'
p627
S'16000000L'
p628
sS'variant'
p629
S'eightanaloginputs'
p630
ssS'name'
p631
S'Arduino BT w/ ATmega168'
p632
sg102
S'/usr/share/arduino/hardware/arduino'
p633
saa(lp634
S'lilypad328'
p635
a(dp636
S'bootloader'
p637
(dp638
S'extended_fuses'
p639
S'0x05'
p640
sS'high_fuses'
p641
S'0xDA'
p642
sS'low_fuses'
p643
S'0xFF'
p644
sS'lock_bits'
p645
S'0x0F'
p646
sS'file'
p647
S'ATmegaBOOT_168_atmega328_pro_8MHz.hex'
p648
sS'path'
p649
S'atmega'
p650
sS'unlock_bits'
p651
S'0x3F'
p652
ssS'upload'
p653
(dp654
S'speed'
p655
S'57600'
p656
sS'maximum_size'
p657
S'30720'
p658
sS'protocol'
p659
S'arduino'
p660
ssS'build'
p661
(dp662
S'core'
p663
S'arduino'
p664
sS'mcu'
p665
S'atmega328p'
p666
sS'f_cpu'
p667
S'8000000L'
p668
sS'variant'
p669
S'standard'
p670
ssS'name'
p671
S'LilyPad Arduino w/ ATmega328'
p672
sg102
S'/usr/share/arduino/hardware/arduino'
p673
saa(lp674
S'lilypad'
p675
a(dp676
S'bootloader'
p677
(dp678
S'extended_fuses'
p679
S'0x00'
p680
sS'high_fuses'
p681
S'0xdd'
p682
sS'low_fuses'
p683
S'0xe2'
p684
sS'lock_bits'
p685
S'0x0F'
p686
sS'file'
p687
S'LilyPadBOOT_168.hex'
p688
sS'path'
p689
S'lilypad'
p690
sS'unlock_bits'
p691
S'0x3F'
p692
ssS'upload'
p693
(dp694
S'speed'
p695
S'19200'
p696
sS'maximum_size'
p697
S'14336'
p698
sS'protocol'
p699
S'arduino'
p700
ssS'build'
p701
(dp702
S'core'
p703
S'arduino'
p704
sS'mcu'
p705
S'atmega168'
p706
sS'f_cpu'
p707
S'8000000L'
p708
sS'variant'
p709
S'standard'
p710
ssS'name'
p711
S'LilyPad Arduino w/ ATmega168'
p712
sg102
S'/usr/share/arduino/hardware/arduino'
p713
saa(lp714
S'pro5v328'
p715
a(dp716
S'bootloader'
p717
(dp718
S'extended_fuses'
p719
S'0x05'
p720
sS'high_fuses'
p721
S'0xDA'
p722
sS'low_fuses'
p723
S'0xFF'
p724
sS'lock_bits'
p725
S'0x0F'
p726
sS'file'
p727
S'ATmegaBOOT_168_atmega328.hex'
p728
sS'path'
p729
S'atmega'
p730
sS'unlock_bits'
p731
S'0x3F'
p732
ssS'upload'
p733
(dp734
S'speed'
p735
S'57600'
p736
sS'maximum_size'
p737
S'30720'
p738
sS'protocol'
p739
S'arduino'
p740
ssS'build'
p741
(dp742
S'core'
p743
S'arduino'
p744
sS'mcu'
p745
S'atmega328p'
p746
sS'f_cpu'
p747
S'16000000L'
p748
sS'variant'
p749
S'standard'
p750
ssS'name'
p751
S'Arduino Pro or Pro Mini (5V, 16 MHz) w/ ATmega328'
p752
sg102
S'/usr/share/arduino/hardware/arduino'
p753
saa(lp754
S'pro5v'
p755
a(dp756
S'bootloader'
p757
(dp758
S'extended_fuses'
p759
S'0x00'
p760
sS'high_fuses'
p761
S'0xdd'
p762
sS'low_fuses'
p763
S'0xff'
p764
sS'lock_bits'
p765
S'0x0F'
p766
sS'file'
p767
S'ATmegaBOOT_168_diecimila.hex'
p768
sS'path'
p769
S'atmega'
p770
sS'unlock_bits'
p771
S'0x3F'
p772
ssS'upload'
p773
(dp774
S'speed'
p775
S'19200'
p776
sS'maximum_size'
p777
S'14336'
p778
sS'protocol'
p779
S'arduino'
p780
ssS'build'
p781
(dp782
S'core'
p783
S'arduino'
p784
sS'mcu'
p785
S'atmega168'
p786
sS'f_cpu'
p787
S'16000000L'
p788
sS'variant'
p789
S'standard'
p790
ssS'name'
p791
S'Arduino Pro or Pro Mini (5V, 16 MHz) w/ ATmega168'
p792
sg102
S'/usr/share/arduino/hardware/arduino'
p793
saa(lp794
S'pro328'
p795
a(dp796
S'bootloader'
p797
(dp798
S'extended_fuses'
p799
S'0x05'
p800
sS'high_fuses'
p801
S'0xDA'
p802
sS'low_fuses'
p803
S'0xFF'
p804
sS'lock_bits'
p805
S'0x0F'
p806
sS'file'
p807
S'ATmegaBOOT_168_atmega328_pro_8MHz.hex'
p808
sS'path'
p809
S'atmega'
p810
sS'unlock_bits'
p811
S'0x3F'
p812
ssS'upload'
p813
(dp814
S'speed'
p815
S'57600'
p816
sS'maximum_size'
p817
S'30720'
p818
sS'protocol'
p819
S'arduino'
p820
ssS'build'
p821
(dp822
S'core'
p823
S'arduino'
p824
sS'mcu'
p825
S'atmega328p'
p826
sS'f_cpu'
p827
S'8000000L'
p828
sS'variant'
p829
S'standard'
p830
ssS'name'
p831
S'Arduino Pro or Pro Mini (3.3V, 8 MHz) w/ ATmega328'
p832
sg102
S'/usr/share/arduino/hardware/arduino'
p833
saa(lp834
S'pro'
p835
a(dp836
S'bootloader'
p837
(dp838
S'extended_fuses'
p839
S'0x00'
p840
sS'high_fuses'
p841
S'0xdd'
p842
sS'low_fuses'
p843
S'0xc6'
p844
sS'lock_bits'
p845
S'0x0F'
p846
sS'file'
p847
S'ATmegaBOOT_168_pro_8MHz.hex'
p848
sS'path'
p849
S'atmega'
p850
sS'unlock_bits'
p851
S'0x3F'
p852
ssS'upload'
p853
(dp854
S'speed'
p855
S'19200'
p856
sS'maximum_size'
p857
S'14336'
p858
sS'protocol'
p859
S'arduino'
p860
ssS'build'
p861
(dp862
S'core'
p863
S'arduino'
p864
sS'mcu'
p865
S'atmega168'
p866
sS'f_cpu'
p867
S'8000000L'
p868
sS'variant'
p869
S'standard'
p870
ssS'name'
p871
S'Arduino Pro or Pro Mini (3.3V, 8 MHz) w/ ATmega168'
p872
sg102
S'/usr/share/arduino/hardware/arduino'
p873
saa(lp874
S'atmega168'
p875
a(dp876
S'bootloader'
p877
(dp878
S'extended_fuses'
p879
S'0x00'
p880
sS'high_fuses'
p881
S'0xdd'
p882
sS'low_fuses'
p883
S'0xff'
p884
sS'lock_bits'
p885
S'0x0F'
p886
sS'file'
p887
S'ATmegaBOOT_168_ng.hex'
p888
sS'path'
p889
S'atmega'
p890
sS'unlock_bits'
p891
S'0x3F'
p892
ssS'upload'
p893
(dp894
S'speed'
p895
S'19200'
p896
sS'maximum_size'
p897
S'14336'
p898
sS'protocol'
p899
S'arduino'
p900
ssS'build'
p901
(dp902
S'core'
p903
S'arduino'
p904
sS'mcu'
p905
S'atmega168'
p906
sS'f_cpu'
p907
S'16000000L'
p908
sS'variant'
p909
S'standard'
p910
ssS'name'
p911
S'Arduino NG or older w/ ATmega168'
p912
sg102
S'/usr/share/arduino/hardware/arduino'
p913
saa(lp914
S'atmega8'
p915
a(dp916
S'bootloader'
p917
(dp918
S'high_fuses'
p919
S'0xca'
p920
sS'low_fuses'
p921
S'0xdf'
p922
sS'lock_bits'
p923
S'0x0F'
p924
sS'file'
p925
S'ATmegaBOOT.hex'
p926
sS'path'
p927
S'atmega8'
p928
sS'unlock_bits'
p929
S'0x3F'
p930
ssS'upload'
p931
(dp932
S'speed'
p933
S'19200'
p934
sS'maximum_size'
p935
S'7168'
p936
sS'protocol'
p937
S'arduino'
p938
ssS'build'
p939
(dp940
S'core'
p941
S'arduino'
p942
sS'mcu'
p943
S'atmega8'
p944
sS'f_cpu'
p945
S'16000000L'
p946
sS'variant'
p947
S'standard'
p948
ssS'name'
p949
S'Arduino NG or older w/ ATmega8'
p950
sg102
S'/usr/share/arduino/hardware/arduino'
p951
saatp952
Rp953
(dp954
S'default'
p955
S'uno'
p956
sbtp957
a(S'used_libs'
p958
(lp959
S'/usr/share/arduino/hardware/arduino/cores/arduino'
p960
atp961
a(S'make'
p962
S'/usr/bin/make'
p963
tp964
a(S'arduino_libraries_dir'
p965
S'/usr/share/arduino/libraries'
p966
tp967
a(S'cxx'
p968
S'/usr/bin/avr-g++'
p969
tp970
a(S'cflags'
p971
g2
(g3
g4
(lp972
tp973
Rp974
tp975
a(S'cxxflags'
p976
g2
(g3
g4
(lp977
S'-fno-exceptions'
p978
atp979
Rp980
tp981
a(S'arduino_variants_dir'
p982
S'/usr/share/arduino/hardware/arduino/variants'
p983
tp984
a(S'stty'
p985
S'/bin/stty'
p986
tp987
a(S'version.txt'
p988
S'/usr/share/arduino/lib/version.txt'
p989
tp990
a(S'arduino_core_dir'
p991
g960
tp992
a(S'boards.txt'
p993
(lp994
S'/usr/share/arduino/hardware/arduino/boards.txt'
p995
atp996
a(S'avrdude.conf'
p997
S'/usr/share/arduino/hardware/tools/avrdude.conf'
p998
tp999
a(S'deps'
p1000
g2
(g3
g4
(lp1001
S'.build/diecimila/src/dependencies.d'
p1002
aS'.build/diecimila/arduino/dependencies.d'
p1003
atp1004
Rp1005
tp1006
a.