(lp0
(S'cppflags'
p1
ccopy_reg
_reconstructor
p2
(cino.utils
SpaceList
p3
c__builtin__
list
p4
(lp5
S'-mmcu=atmega168'
p6
aS'-DF_CPU=16000000L'
p7
aS'-DARDUINO=101'
p8
aS'-I/usr/share/arduino/hardware/arduino/cores/arduino'
p9
aS'-ffunction-sections'
p10
aS'-fdata-sections'
p11
aS'-g'
p12
aS'-Os'
p13
aS'-w'
p14
aS'-I/usr/share/arduino/hardware/arduino/variants/standard'
p15
aS'-I/usr/share/arduino/hardware/arduino/cores/arduino'
p16
atp17
Rp18
tp19
a(S'cc'
p20
S'/usr/bin/avr-gcc'
p21
tp22
a(S'arduino_libraries_dir'
p23
S'/usr/share/arduino/libraries'
p24
tp25
a(S'avrdude'
p26
S'/usr/share/arduino/hardware/tools/avrdude'
p27
tp28
a(S'ar'
p29
S'/usr/bin/avr-ar'
p30
tp31
a(S'names'
p32
(dp33
S'cpp'
p34
S'%s.cpp'
p35
sS'obj'
p36
S'%s.o'
p37
sS'lib'
p38
S'lib%s.a'
p39
sS'deps'
p40
S'%s.d'
p41
stp42
a(S'ldflags'
p43
g2
(g3
g4
(lp44
g6
aS'-Wl,-Os'
p45
aS'-Wl,--gc-sections'
p46
atp47
Rp48
tp49
a(S'arduino_lib_version'
p50
g2
(cino.environment
Version
p51
c__builtin__
tuple
p52
(I1
I0
I1
tp53
tp54
Rp55
tp56
a(S'objcopy'
p57
S'/usr/bin/avr-objcopy'
p58
tp59
a(S'board_models'
p60
cino.environment
BoardModels
p61
((lp62
(lp63
S'uno'
p64
a(dp65
S'_coredir'
p66
S'/usr/share/arduino/hardware/arduino'
p67
sS'bootloader'
p68
(dp69
S'extended_fuses'
p70
S'0x05'
p71
sS'high_fuses'
p72
S'0xde'
p73
sS'low_fuses'
p74
S'0xff'
p75
sS'lock_bits'
p76
S'0x0F'
p77
sS'file'
p78
S'optiboot_atmega328.hex'
p79
sS'path'
p80
S'optiboot'
p81
sS'unlock_bits'
p82
S'0x3F'
p83
ssS'build'
p84
(dp85
S'core'
p86
S'arduino'
p87
sS'mcu'
p88
S'atmega328p'
p89
sS'f_cpu'
p90
S'16000000L'
p91
sS'variant'
p92
S'standard'
p93
ssS'name'
p94
S'Arduino Uno'
p95
sS'upload'
p96
(dp97
S'protocol'
p98
S'arduino'
p99
sS'maximum_size'
p100
S'32256'
p101
sS'speed'
p102
S'115200'
p103
ssaa(lp104
S'atmega328'
p105
a(dp106
g66
S'/usr/share/arduino/hardware/arduino'
p107
sS'bootloader'
p108
(dp109
S'extended_fuses'
p110
S'0x05'
p111
sS'high_fuses'
p112
S'0xDA'
p113
sS'low_fuses'
p114
S'0xFF'
p115
sS'lock_bits'
p116
S'0x0F'
p117
sS'file'
p118
S'ATmegaBOOT_168_atmega328.hex'
p119
sS'path'
p120
S'atmega'
p121
sS'unlock_bits'
p122
S'0x3F'
p123
ssS'build'
p124
(dp125
S'core'
p126
S'arduino'
p127
sS'mcu'
p128
S'atmega328p'
p129
sS'f_cpu'
p130
S'16000000L'
p131
sS'variant'
p132
S'standard'
p133
ssS'name'
p134
S'Arduino Duemilanove w/ ATmega328'
p135
sS'upload'
p136
(dp137
S'protocol'
p138
S'arduino'
p139
sS'maximum_size'
p140
S'30720'
p141
sS'speed'
p142
S'57600'
p143
ssaa(lp144
S'diecimila'
p145
a(dp146
g66
S'/usr/share/arduino/hardware/arduino'
p147
sS'bootloader'
p148
(dp149
S'extended_fuses'
p150
S'0x00'
p151
sS'high_fuses'
p152
S'0xdd'
p153
sS'low_fuses'
p154
S'0xff'
p155
sS'lock_bits'
p156
S'0x0F'
p157
sS'file'
p158
S'ATmegaBOOT_168_diecimila.hex'
p159
sS'path'
p160
S'atmega'
p161
sS'unlock_bits'
p162
S'0x3F'
p163
ssS'build'
p164
(dp165
S'core'
p166
S'arduino'
p167
sS'mcu'
p168
S'atmega168'
p169
sS'f_cpu'
p170
S'16000000L'
p171
sS'variant'
p172
S'standard'
p173
ssS'name'
p174
S'Arduino Diecimila or Duemilanove w/ ATmega168'
p175
sS'upload'
p176
(dp177
S'protocol'
p178
S'arduino'
p179
sS'maximum_size'
p180
S'14336'
p181
sS'speed'
p182
S'19200'
p183
ssaa(lp184
S'nano328'
p185
a(dp186
g66
S'/usr/share/arduino/hardware/arduino'
p187
sS'bootloader'
p188
(dp189
S'extended_fuses'
p190
S'0x05'
p191
sS'high_fuses'
p192
S'0xDA'
p193
sS'low_fuses'
p194
S'0xFF'
p195
sS'lock_bits'
p196
S'0x0F'
p197
sS'file'
p198
S'ATmegaBOOT_168_atmega328.hex'
p199
sS'path'
p200
S'atmega'
p201
sS'unlock_bits'
p202
S'0x3F'
p203
ssS'build'
p204
(dp205
S'core'
p206
S'arduino'
p207
sS'mcu'
p208
S'atmega328p'
p209
sS'f_cpu'
p210
S'16000000L'
p211
sS'variant'
p212
S'eightanaloginputs'
p213
ssS'name'
p214
S'Arduino Nano w/ ATmega328'
p215
sS'upload'
p216
(dp217
S'protocol'
p218
S'arduino'
p219
sS'maximum_size'
p220
S'30720'
p221
sS'speed'
p222
S'57600'
p223
ssaa(lp224
S'nano'
p225
a(dp226
g66
S'/usr/share/arduino/hardware/arduino'
p227
sS'bootloader'
p228
(dp229
S'extended_fuses'
p230
S'0x00'
p231
sS'high_fuses'
p232
S'0xdd'
p233
sS'low_fuses'
p234
S'0xff'
p235
sS'lock_bits'
p236
S'0x0F'
p237
sS'file'
p238
S'ATmegaBOOT_168_diecimila.hex'
p239
sS'path'
p240
S'atmega'
p241
sS'unlock_bits'
p242
S'0x3F'
p243
ssS'build'
p244
(dp245
S'core'
p246
S'arduino'
p247
sS'mcu'
p248
S'atmega168'
p249
sS'f_cpu'
p250
S'16000000L'
p251
sS'variant'
p252
S'eightanaloginputs'
p253
ssS'name'
p254
S'Arduino Nano w/ ATmega168'
p255
sS'upload'
p256
(dp257
S'protocol'
p258
S'arduino'
p259
sS'maximum_size'
p260
S'14336'
p261
sS'speed'
p262
S'19200'
p263
ssaa(lp264
S'mega2560'
p265
a(dp266
g66
S'/usr/share/arduino/hardware/arduino'
p267
sS'bootloader'
p268
(dp269
S'extended_fuses'
p270
S'0xFD'
p271
sS'high_fuses'
p272
S'0xD8'
p273
sS'low_fuses'
p274
S'0xFF'
p275
sS'lock_bits'
p276
S'0x0F'
p277
sS'file'
p278
S'stk500boot_v2_mega2560.hex'
p279
sS'path'
p280
S'stk500v2'
p281
sS'unlock_bits'
p282
S'0x3F'
p283
ssS'build'
p284
(dp285
S'core'
p286
S'arduino'
p287
sS'mcu'
p288
S'atmega2560'
p289
sS'f_cpu'
p290
S'16000000L'
p291
sS'variant'
p292
S'mega'
p293
ssS'name'
p294
S'Arduino Mega 2560 or Mega ADK'
p295
sS'upload'
p296
(dp297
S'protocol'
p298
S'stk500v2'
p299
sS'maximum_size'
p300
S'258048'
p301
sS'speed'
p302
S'115200'
p303
ssaa(lp304
S'mega'
p305
a(dp306
g66
S'/usr/share/arduino/hardware/arduino'
p307
sS'bootloader'
p308
(dp309
S'extended_fuses'
p310
S'0xF5'
p311
sS'high_fuses'
p312
S'0xDA'
p313
sS'low_fuses'
p314
S'0xFF'
p315
sS'lock_bits'
p316
S'0x0F'
p317
sS'file'
p318
S'ATmegaBOOT_168_atmega1280.hex'
p319
sS'path'
p320
S'atmega'
p321
sS'unlock_bits'
p322
S'0x3F'
p323
ssS'build'
p324
(dp325
S'core'
p326
S'arduino'
p327
sS'mcu'
p328
S'atmega1280'
p329
sS'f_cpu'
p330
S'16000000L'
p331
sS'variant'
p332
S'mega'
p333
ssS'name'
p334
S'Arduino Mega (ATmega1280)'
p335
sS'upload'
p336
(dp337
S'protocol'
p338
S'arduino'
p339
sS'maximum_size'
p340
S'126976'
p341
sS'speed'
p342
S'57600'
p343
ssaa(lp344
S'leonardo'
p345
a(dp346
g66
S'/usr/share/arduino/hardware/arduino'
p347
sS'bootloader'
p348
(dp349
S'extended_fuses'
p350
S'0xcb'
p351
sS'high_fuses'
p352
S'0xd8'
p353
sS'low_fuses'
p354
S'0xff'
p355
sS'lock_bits'
p356
S'0x2F'
p357
sS'file'
p358
S'Caterina-Leonardo.hex'
p359
sS'path'
p360
S'caterina'
p361
sS'unlock_bits'
p362
S'0x3F'
p363
ssS'build'
p364
(dp365
S'core'
p366
S'arduino'
p367
sS'f_cpu'
p368
S'16000000L'
p369
sS'vid'
p370
S'0x2341'
p371
sS'pid'
p372
S'0x8036'
p373
sS'variant'
p374
S'leonardo'
p375
sS'mcu'
p376
S'atmega32u4'
p377
ssS'name'
p378
S'Arduino Leonardo'
p379
sS'upload'
p380
(dp381
S'protocol'
p382
S'avr109'
p383
sS'maximum_size'
p384
S'28672'
p385
sS'speed'
p386
S'57600'
p387
sS'disable_flushing'
p388
S'true'
p389
ssaa(lp390
S'mini328'
p391
a(dp392
g66
S'/usr/share/arduino/hardware/arduino'
p393
sS'bootloader'
p394
(dp395
S'extended_fuses'
p396
S'0x05'
p397
sS'high_fuses'
p398
S'0xd8'
p399
sS'low_fuses'
p400
S'0xff'
p401
sS'lock_bits'
p402
S'0x0F'
p403
sS'file'
p404
S'optiboot_atmega328-Mini.hex'
p405
sS'path'
p406
S'optiboot'
p407
sS'unlock_bits'
p408
S'0x3F'
p409
ssS'build'
p410
(dp411
S'core'
p412
S'arduino'
p413
sS'mcu'
p414
S'atmega328p'
p415
sS'f_cpu'
p416
S'16000000L'
p417
sS'variant'
p418
S'eightanaloginputs'
p419
ssS'name'
p420
S'Arduino Mini w/ ATmega328'
p421
sS'upload'
p422
(dp423
S'protocol'
p424
S'arduino'
p425
sS'maximum_size'
p426
S'28672'
p427
sS'speed'
p428
S'115200'
p429
ssaa(lp430
S'mini'
p431
a(dp432
g66
S'/usr/share/arduino/hardware/arduino'
p433
sS'bootloader'
p434
(dp435
S'extended_fuses'
p436
S'0x00'
p437
sS'high_fuses'
p438
S'0xdd'
p439
sS'low_fuses'
p440
S'0xff'
p441
sS'lock_bits'
p442
S'0x0F'
p443
sS'file'
p444
S'ATmegaBOOT_168_ng.hex'
p445
sS'path'
p446
S'atmega'
p447
sS'unlock_bits'
p448
S'0x3F'
p449
ssS'build'
p450
(dp451
S'core'
p452
S'arduino'
p453
sS'mcu'
p454
S'atmega168'
p455
sS'f_cpu'
p456
S'16000000L'
p457
sS'variant'
p458
S'eightanaloginputs'
p459
ssS'name'
p460
S'Arduino Mini w/ ATmega168'
p461
sS'upload'
p462
(dp463
S'protocol'
p464
S'arduino'
p465
sS'maximum_size'
p466
S'14336'
p467
sS'speed'
p468
S'19200'
p469
ssaa(lp470
S'ethernet'
p471
a(dp472
g66
S'/usr/share/arduino/hardware/arduino'
p473
sS'bootloader'
p474
(dp475
S'extended_fuses'
p476
S'0x05'
p477
sS'high_fuses'
p478
S'0xde'
p479
sS'low_fuses'
p480
S'0xff'
p481
sS'lock_bits'
p482
S'0x0F'
p483
sS'file'
p484
S'optiboot_atmega328.hex'
p485
sS'path'
p486
S'optiboot'
p487
sS'unlock_bits'
p488
S'0x3F'
p489
ssS'build'
p490
(dp491
S'variant'
p492
S'standard'
p493
sS'mcu'
p494
S'atmega328p'
p495
sS'f_cpu'
p496
S'16000000L'
p497
sS'core'
p498
S'arduino'
p499
ssS'name'
p500
S'Arduino Ethernet'
p501
sS'upload'
p502
(dp503
S'protocol'
p504
S'arduino'
p505
sS'maximum_size'
p506
S'32256'
p507
sS'speed'
p508
S'115200'
p509
ssaa(lp510
S'fio'
p511
a(dp512
g66
S'/usr/share/arduino/hardware/arduino'
p513
sS'bootloader'
p514
(dp515
S'extended_fuses'
p516
S'0x05'
p517
sS'high_fuses'
p518
S'0xDA'
p519
sS'low_fuses'
p520
S'0xFF'
p521
sS'lock_bits'
p522
S'0x0F'
p523
sS'file'
p524
S'ATmegaBOOT_168_atmega328_pro_8MHz.hex'
p525
sS'path'
p526
S'arduino:atmega'
p527
sS'unlock_bits'
p528
S'0x3F'
p529
ssS'build'
p530
(dp531
S'core'
p532
S'arduino'
p533
sS'mcu'
p534
S'atmega328p'
p535
sS'f_cpu'
p536
S'8000000L'
p537
sS'variant'
p538
S'eightanaloginputs'
p539
ssS'name'
p540
S'Arduino Fio'
p541
sS'upload'
p542
(dp543
S'protocol'
p544
S'arduino'
p545
sS'maximum_size'
p546
S'30720'
p547
sS'speed'
p548
S'57600'
p549
ssaa(lp550
S'bt328'
p551
a(dp552
g66
S'/usr/share/arduino/hardware/arduino'
p553
sS'bootloader'
p554
(dp555
S'extended_fuses'
p556
S'0x05'
p557
sS'high_fuses'
p558
S'0xd8'
p559
sS'low_fuses'
p560
S'0xff'
p561
sS'lock_bits'
p562
S'0x0F'
p563
sS'file'
p564
S'ATmegaBOOT_168_atmega328_bt.hex'
p565
sS'path'
p566
S'bt'
p567
sS'unlock_bits'
p568
S'0x3F'
p569
ssS'build'
p570
(dp571
S'core'
p572
S'arduino'
p573
sS'mcu'
p574
S'atmega328p'
p575
sS'f_cpu'
p576
S'16000000L'
p577
sS'variant'
p578
S'eightanaloginputs'
p579
ssS'name'
p580
S'Arduino BT w/ ATmega328'
p581
sS'upload'
p582
(dp583
S'protocol'
p584
S'arduino'
p585
sS'maximum_size'
p586
S'28672'
p587
sS'speed'
p588
S'19200'
p589
sS'disable_flushing'
p590
S'true'
p591
ssaa(lp592
S'bt'
p593
a(dp594
g66
S'/usr/share/arduino/hardware/arduino'
p595
sS'bootloader'
p596
(dp597
S'extended_fuses'
p598
S'0x00'
p599
sS'high_fuses'
p600
S'0xdd'
p601
sS'low_fuses'
p602
S'0xff'
p603
sS'lock_bits'
p604
S'0x0F'
p605
sS'file'
p606
S'ATmegaBOOT_168.hex'
p607
sS'path'
p608
S'bt'
p609
sS'unlock_bits'
p610
S'0x3F'
p611
ssS'build'
p612
(dp613
S'core'
p614
S'arduino'
p615
sS'mcu'
p616
S'atmega168'
p617
sS'f_cpu'
p618
S'16000000L'
p619
sS'variant'
p620
S'eightanaloginputs'
p621
ssS'name'
p622
S'Arduino BT w/ ATmega168'
p623
sS'upload'
p624
(dp625
S'protocol'
p626
S'arduino'
p627
sS'maximum_size'
p628
S'14336'
p629
sS'speed'
p630
S'19200'
p631
sS'disable_flushing'
p632
S'true'
p633
ssaa(lp634
S'lilypad328'
p635
a(dp636
g66
S'/usr/share/arduino/hardware/arduino'
p637
sS'bootloader'
p638
(dp639
S'extended_fuses'
p640
S'0x05'
p641
sS'high_fuses'
p642
S'0xDA'
p643
sS'low_fuses'
p644
S'0xFF'
p645
sS'lock_bits'
p646
S'0x0F'
p647
sS'file'
p648
S'ATmegaBOOT_168_atmega328_pro_8MHz.hex'
p649
sS'path'
p650
S'atmega'
p651
sS'unlock_bits'
p652
S'0x3F'
p653
ssS'build'
p654
(dp655
S'core'
p656
S'arduino'
p657
sS'mcu'
p658
S'atmega328p'
p659
sS'f_cpu'
p660
S'8000000L'
p661
sS'variant'
p662
S'standard'
p663
ssS'name'
p664
S'LilyPad Arduino w/ ATmega328'
p665
sS'upload'
p666
(dp667
S'protocol'
p668
S'arduino'
p669
sS'maximum_size'
p670
S'30720'
p671
sS'speed'
p672
S'57600'
p673
ssaa(lp674
S'lilypad'
p675
a(dp676
g66
S'/usr/share/arduino/hardware/arduino'
p677
sS'bootloader'
p678
(dp679
S'extended_fuses'
p680
S'0x00'
p681
sS'high_fuses'
p682
S'0xdd'
p683
sS'low_fuses'
p684
S'0xe2'
p685
sS'lock_bits'
p686
S'0x0F'
p687
sS'file'
p688
S'LilyPadBOOT_168.hex'
p689
sS'path'
p690
S'lilypad'
p691
sS'unlock_bits'
p692
S'0x3F'
p693
ssS'build'
p694
(dp695
S'core'
p696
S'arduino'
p697
sS'mcu'
p698
S'atmega168'
p699
sS'f_cpu'
p700
S'8000000L'
p701
sS'variant'
p702
S'standard'
p703
ssS'name'
p704
S'LilyPad Arduino w/ ATmega168'
p705
sS'upload'
p706
(dp707
S'protocol'
p708
S'arduino'
p709
sS'maximum_size'
p710
S'14336'
p711
sS'speed'
p712
S'19200'
p713
ssaa(lp714
S'pro5v328'
p715
a(dp716
g66
S'/usr/share/arduino/hardware/arduino'
p717
sS'bootloader'
p718
(dp719
S'extended_fuses'
p720
S'0x05'
p721
sS'high_fuses'
p722
S'0xDA'
p723
sS'low_fuses'
p724
S'0xFF'
p725
sS'lock_bits'
p726
S'0x0F'
p727
sS'file'
p728
S'ATmegaBOOT_168_atmega328.hex'
p729
sS'path'
p730
S'atmega'
p731
sS'unlock_bits'
p732
S'0x3F'
p733
ssS'build'
p734
(dp735
S'core'
p736
S'arduino'
p737
sS'mcu'
p738
S'atmega328p'
p739
sS'f_cpu'
p740
S'16000000L'
p741
sS'variant'
p742
S'standard'
p743
ssS'name'
p744
S'Arduino Pro or Pro Mini (5V, 16 MHz) w/ ATmega328'
p745
sS'upload'
p746
(dp747
S'protocol'
p748
S'arduino'
p749
sS'maximum_size'
p750
S'30720'
p751
sS'speed'
p752
S'57600'
p753
ssaa(lp754
S'pro5v'
p755
a(dp756
g66
S'/usr/share/arduino/hardware/arduino'
p757
sS'bootloader'
p758
(dp759
S'extended_fuses'
p760
S'0x00'
p761
sS'high_fuses'
p762
S'0xdd'
p763
sS'low_fuses'
p764
S'0xff'
p765
sS'lock_bits'
p766
S'0x0F'
p767
sS'file'
p768
S'ATmegaBOOT_168_diecimila.hex'
p769
sS'path'
p770
S'atmega'
p771
sS'unlock_bits'
p772
S'0x3F'
p773
ssS'build'
p774
(dp775
S'core'
p776
S'arduino'
p777
sS'mcu'
p778
S'atmega168'
p779
sS'f_cpu'
p780
S'16000000L'
p781
sS'variant'
p782
S'standard'
p783
ssS'name'
p784
S'Arduino Pro or Pro Mini (5V, 16 MHz) w/ ATmega168'
p785
sS'upload'
p786
(dp787
S'protocol'
p788
S'arduino'
p789
sS'maximum_size'
p790
S'14336'
p791
sS'speed'
p792
S'19200'
p793
ssaa(lp794
S'pro328'
p795
a(dp796
g66
S'/usr/share/arduino/hardware/arduino'
p797
sS'bootloader'
p798
(dp799
S'extended_fuses'
p800
S'0x05'
p801
sS'high_fuses'
p802
S'0xDA'
p803
sS'low_fuses'
p804
S'0xFF'
p805
sS'lock_bits'
p806
S'0x0F'
p807
sS'file'
p808
S'ATmegaBOOT_168_atmega328_pro_8MHz.hex'
p809
sS'path'
p810
S'atmega'
p811
sS'unlock_bits'
p812
S'0x3F'
p813
ssS'build'
p814
(dp815
S'core'
p816
S'arduino'
p817
sS'mcu'
p818
S'atmega328p'
p819
sS'f_cpu'
p820
S'8000000L'
p821
sS'variant'
p822
S'standard'
p823
ssS'name'
p824
S'Arduino Pro or Pro Mini (3.3V, 8 MHz) w/ ATmega328'
p825
sS'upload'
p826
(dp827
S'protocol'
p828
S'arduino'
p829
sS'maximum_size'
p830
S'30720'
p831
sS'speed'
p832
S'57600'
p833
ssaa(lp834
S'pro'
p835
a(dp836
g66
S'/usr/share/arduino/hardware/arduino'
p837
sS'bootloader'
p838
(dp839
S'extended_fuses'
p840
S'0x00'
p841
sS'high_fuses'
p842
S'0xdd'
p843
sS'low_fuses'
p844
S'0xc6'
p845
sS'lock_bits'
p846
S'0x0F'
p847
sS'file'
p848
S'ATmegaBOOT_168_pro_8MHz.hex'
p849
sS'path'
p850
S'atmega'
p851
sS'unlock_bits'
p852
S'0x3F'
p853
ssS'build'
p854
(dp855
S'core'
p856
S'arduino'
p857
sS'mcu'
p858
S'atmega168'
p859
sS'f_cpu'
p860
S'8000000L'
p861
sS'variant'
p862
S'standard'
p863
ssS'name'
p864
S'Arduino Pro or Pro Mini (3.3V, 8 MHz) w/ ATmega168'
p865
sS'upload'
p866
(dp867
S'protocol'
p868
S'arduino'
p869
sS'maximum_size'
p870
S'14336'
p871
sS'speed'
p872
S'19200'
p873
ssaa(lp874
S'atmega168'
p875
a(dp876
g66
S'/usr/share/arduino/hardware/arduino'
p877
sS'bootloader'
p878
(dp879
S'extended_fuses'
p880
S'0x00'
p881
sS'high_fuses'
p882
S'0xdd'
p883
sS'low_fuses'
p884
S'0xff'
p885
sS'lock_bits'
p886
S'0x0F'
p887
sS'file'
p888
S'ATmegaBOOT_168_ng.hex'
p889
sS'path'
p890
S'atmega'
p891
sS'unlock_bits'
p892
S'0x3F'
p893
ssS'build'
p894
(dp895
S'core'
p896
S'arduino'
p897
sS'mcu'
p898
S'atmega168'
p899
sS'f_cpu'
p900
S'16000000L'
p901
sS'variant'
p902
S'standard'
p903
ssS'name'
p904
S'Arduino NG or older w/ ATmega168'
p905
sS'upload'
p906
(dp907
S'protocol'
p908
S'arduino'
p909
sS'maximum_size'
p910
S'14336'
p911
sS'speed'
p912
S'19200'
p913
ssaa(lp914
S'atmega8'
p915
a(dp916
g66
S'/usr/share/arduino/hardware/arduino'
p917
sS'bootloader'
p918
(dp919
S'high_fuses'
p920
S'0xca'
p921
sS'low_fuses'
p922
S'0xdf'
p923
sS'lock_bits'
p924
S'0x0F'
p925
sS'file'
p926
S'ATmegaBOOT.hex'
p927
sS'path'
p928
S'atmega8'
p929
sS'unlock_bits'
p930
S'0x3F'
p931
ssS'build'
p932
(dp933
S'core'
p934
S'arduino'
p935
sS'mcu'
p936
S'atmega8'
p937
sS'f_cpu'
p938
S'16000000L'
p939
sS'variant'
p940
S'standard'
p941
ssS'name'
p942
S'Arduino NG or older w/ ATmega8'
p943
sS'upload'
p944
(dp945
S'protocol'
p946
S'arduino'
p947
sS'maximum_size'
p948
S'7168'
p949
sS'speed'
p950
S'19200'
p951
ssaatp952
Rp953
(dp954
S'default'
p955
S'uno'
p956
sbtp957
a(S'used_libs'
p958
(lp959
S'/usr/share/arduino/hardware/arduino/cores/arduino'
p960
atp961
a(S'make'
p962
S'/usr/bin/make'
p963
tp964
a(S'build_dir'
p965
S'.build/diecimila'
p966
tp967
a(S'cxx'
p968
S'/usr/bin/avr-g++'
p969
tp970
a(S'cflags'
p971
g2
(g3
g4
(lp972
tp973
Rp974
tp975
a(S'cxxflags'
p976
g2
(g3
g4
(lp977
S'-fno-exceptions'
p978
atp979
Rp980
tp981
a(S'arduino_variants_dir'
p982
S'/usr/share/arduino/hardware/arduino/variants'
p983
tp984
a(S'stty'
p985
S'/bin/stty'
p986
tp987
a(S'version.txt'
p988
S'/usr/share/arduino/lib/version.txt'
p989
tp990
a(S'arduino_core_dir'
p991
g960
tp992
a(S'boards.txt'
p993
(lp994
S'/usr/share/arduino/hardware/arduino/boards.txt'
p995
atp996
a(S'avrdude.conf'
p997
S'/usr/share/arduino/hardware/tools/avrdude.conf'
p998
tp999
a(S'deps'
p1000
g2
(g3
g4
(lp1001
S'.build/diecimila/src/dependencies.d'
p1002
aS'.build/diecimila/arduino/dependencies.d'
p1003
atp1004
Rp1005
tp1006
a.