(lp0
(S'cppflags'
p1
ccopy_reg
_reconstructor
p2
(cino.utils
SpaceList
p3
c__builtin__
list
p4
(lp5
S'-mmcu=atmega168'
p6
aS'-DF_CPU=16000000L'
p7
aS'-DARDUINO=101'
p8
aS'-I/usr/share/arduino/hardware/arduino/cores/arduino'
p9
aS'-ffunction-sections'
p10
aS'-fdata-sections'
p11
aS'-g'
p12
aS'-Os'
p13
aS'-w'
p14
aS'-I/usr/share/arduino/hardware/arduino/variants/standard'
p15
aS'-I/usr/share/arduino/hardware/arduino/cores/arduino'
p16
atp17
Rp18
tp19
a(S'cc'
p20
S'/usr/bin/avr-gcc'
p21
tp22
a(S'build_dir'
p23
S'.build/diecimila'
p24
tp25
a(S'avrdude'
p26
S'/usr/share/arduino/hardware/tools/avrdude'
p27
tp28
a(S'ar'
p29
S'/usr/bin/avr-ar'
p30
tp31
a(S'names'
p32
(dp33
S'cpp'
p34
S'%s.cpp'
p35
sS'obj'
p36
S'%s.o'
p37
sS'lib'
p38
S'lib%s.a'
p39
sS'deps'
p40
S'%s.d'
p41
stp42
a(S'ldflags'
p43
g2
(g3
g4
(lp44
g6
aS'-Wl,-Os'
p45
aS'-Wl,--gc-sections'
p46
atp47
Rp48
tp49
a(S'arduino_lib_version'
p50
g2
(cino.environment
Version
p51
c__builtin__
tuple
p52
(I1
I0
I1
tp53
tp54
Rp55
tp56
a(S'objcopy'
p57
S'/usr/bin/avr-objcopy'
p58
tp59
a(S'board_models'
p60
cino.environment
BoardModels
p61
((lp62
(lp63
S'uno'
p64
a(dp65
S'build'
p66
(dp67
S'core'
p68
S'arduino'
p69
sS'mcu'
p70
S'atmega328p'
p71
sS'f_cpu'
p72
S'16000000L'
p73
sS'variant'
p74
S'standard'
p75
ssS'bootloader'
p76
(dp77
S'extended_fuses'
p78
S'0x05'
p79
sS'high_fuses'
p80
S'0xde'
p81
sS'low_fuses'
p82
S'0xff'
p83
sS'lock_bits'
p84
S'0x0F'
p85
sS'file'
p86
S'optiboot_atmega328.hex'
p87
sS'path'
p88
S'optiboot'
p89
sS'unlock_bits'
p90
S'0x3F'
p91
ssS'upload'
p92
(dp93
S'speed'
p94
S'115200'
p95
sS'maximum_size'
p96
S'32256'
p97
sS'protocol'
p98
S'arduino'
p99
ssS'name'
p100
S'Arduino Uno'
p101
sS'_coredir'
p102
S'/usr/share/arduino/hardware/arduino'
p103
saa(lp104
S'atmega328'
p105
a(dp106
S'build'
p107
(dp108
S'core'
p109
S'arduino'
p110
sS'mcu'
p111
S'atmega328p'
p112
sS'f_cpu'
p113
S'16000000L'
p114
sS'variant'
p115
S'standard'
p116
ssS'bootloader'
p117
(dp118
S'extended_fuses'
p119
S'0x05'
p120
sS'high_fuses'
p121
S'0xDA'
p122
sS'low_fuses'
p123
S'0xFF'
p124
sS'lock_bits'
p125
S'0x0F'
p126
sS'file'
p127
S'ATmegaBOOT_168_atmega328.hex'
p128
sS'path'
p129
S'atmega'
p130
sS'unlock_bits'
p131
S'0x3F'
p132
ssS'upload'
p133
(dp134
S'speed'
p135
S'57600'
p136
sS'maximum_size'
p137
S'30720'
p138
sS'protocol'
p139
S'arduino'
p140
ssS'name'
p141
S'Arduino Duemilanove w/ ATmega328'
p142
sg102
S'/usr/share/arduino/hardware/arduino'
p143
saa(lp144
S'diecimila'
p145
a(dp146
S'build'
p147
(dp148
S'core'
p149
S'arduino'
p150
sS'mcu'
p151
S'atmega168'
p152
sS'f_cpu'
p153
S'16000000L'
p154
sS'variant'
p155
S'standard'
p156
ssS'bootloader'
p157
(dp158
S'extended_fuses'
p159
S'0x00'
p160
sS'high_fuses'
p161
S'0xdd'
p162
sS'low_fuses'
p163
S'0xff'
p164
sS'lock_bits'
p165
S'0x0F'
p166
sS'file'
p167
S'ATmegaBOOT_168_diecimila.hex'
p168
sS'path'
p169
S'atmega'
p170
sS'unlock_bits'
p171
S'0x3F'
p172
ssS'upload'
p173
(dp174
S'speed'
p175
S'19200'
p176
sS'maximum_size'
p177
S'14336'
p178
sS'protocol'
p179
S'arduino'
p180
ssS'name'
p181
S'Arduino Diecimila or Duemilanove w/ ATmega168'
p182
sg102
S'/usr/share/arduino/hardware/arduino'
p183
saa(lp184
S'nano328'
p185
a(dp186
S'build'
p187
(dp188
S'core'
p189
S'arduino'
p190
sS'mcu'
p191
S'atmega328p'
p192
sS'f_cpu'
p193
S'16000000L'
p194
sS'variant'
p195
S'eightanaloginputs'
p196
ssS'bootloader'
p197
(dp198
S'extended_fuses'
p199
S'0x05'
p200
sS'high_fuses'
p201
S'0xDA'
p202
sS'low_fuses'
p203
S'0xFF'
p204
sS'lock_bits'
p205
S'0x0F'
p206
sS'file'
p207
S'ATmegaBOOT_168_atmega328.hex'
p208
sS'path'
p209
S'atmega'
p210
sS'unlock_bits'
p211
S'0x3F'
p212
ssS'upload'
p213
(dp214
S'speed'
p215
S'57600'
p216
sS'maximum_size'
p217
S'30720'
p218
sS'protocol'
p219
S'arduino'
p220
ssS'name'
p221
S'Arduino Nano w/ ATmega328'
p222
sg102
S'/usr/share/arduino/hardware/arduino'
p223
saa(lp224
S'nano'
p225
a(dp226
S'build'
p227
(dp228
S'core'
p229
S'arduino'
p230
sS'mcu'
p231
S'atmega168'
p232
sS'f_cpu'
p233
S'16000000L'
p234
sS'variant'
p235
S'eightanaloginputs'
p236
ssS'bootloader'
p237
(dp238
S'extended_fuses'
p239
S'0x00'
p240
sS'high_fuses'
p241
S'0xdd'
p242
sS'low_fuses'
p243
S'0xff'
p244
sS'lock_bits'
p245
S'0x0F'
p246
sS'file'
p247
S'ATmegaBOOT_168_diecimila.hex'
p248
sS'path'
p249
S'atmega'
p250
sS'unlock_bits'
p251
S'0x3F'
p252
ssS'upload'
p253
(dp254
S'speed'
p255
S'19200'
p256
sS'maximum_size'
p257
S'14336'
p258
sS'protocol'
p259
S'arduino'
p260
ssS'name'
p261
S'Arduino Nano w/ ATmega168'
p262
sg102
S'/usr/share/arduino/hardware/arduino'
p263
saa(lp264
S'mega2560'
p265
a(dp266
S'build'
p267
(dp268
S'core'
p269
S'arduino'
p270
sS'mcu'
p271
S'atmega2560'
p272
sS'f_cpu'
p273
S'16000000L'
p274
sS'variant'
p275
S'mega'
p276
ssS'bootloader'
p277
(dp278
S'extended_fuses'
p279
S'0xFD'
p280
sS'high_fuses'
p281
S'0xD8'
p282
sS'low_fuses'
p283
S'0xFF'
p284
sS'lock_bits'
p285
S'0x0F'
p286
sS'file'
p287
S'stk500boot_v2_mega2560.hex'
p288
sS'path'
p289
S'stk500v2'
p290
sS'unlock_bits'
p291
S'0x3F'
p292
ssS'upload'
p293
(dp294
S'speed'
p295
S'115200'
p296
sS'maximum_size'
p297
S'258048'
p298
sS'protocol'
p299
S'stk500v2'
p300
ssS'name'
p301
S'Arduino Mega 2560 or Mega ADK'
p302
sg102
S'/usr/share/arduino/hardware/arduino'
p303
saa(lp304
S'mega'
p305
a(dp306
S'build'
p307
(dp308
S'core'
p309
S'arduino'
p310
sS'mcu'
p311
S'atmega1280'
p312
sS'f_cpu'
p313
S'16000000L'
p314
sS'variant'
p315
S'mega'
p316
ssS'bootloader'
p317
(dp318
S'extended_fuses'
p319
S'0xF5'
p320
sS'high_fuses'
p321
S'0xDA'
p322
sS'low_fuses'
p323
S'0xFF'
p324
sS'lock_bits'
p325
S'0x0F'
p326
sS'file'
p327
S'ATmegaBOOT_168_atmega1280.hex'
p328
sS'path'
p329
S'atmega'
p330
sS'unlock_bits'
p331
S'0x3F'
p332
ssS'upload'
p333
(dp334
S'speed'
p335
S'57600'
p336
sS'maximum_size'
p337
S'126976'
p338
sS'protocol'
p339
S'arduino'
p340
ssS'name'
p341
S'Arduino Mega (ATmega1280)'
p342
sg102
S'/usr/share/arduino/hardware/arduino'
p343
saa(lp344
S'leonardo'
p345
a(dp346
S'build'
p347
(dp348
S'core'
p349
S'arduino'
p350
sS'f_cpu'
p351
S'16000000L'
p352
sS'vid'
p353
S'0x2341'
p354
sS'pid'
p355
S'0x8036'
p356
sS'variant'
p357
S'leonardo'
p358
sS'mcu'
p359
S'atmega32u4'
p360
ssS'bootloader'
p361
(dp362
S'extended_fuses'
p363
S'0xcb'
p364
sS'high_fuses'
p365
S'0xd8'
p366
sS'low_fuses'
p367
S'0xff'
p368
sS'lock_bits'
p369
S'0x2F'
p370
sS'file'
p371
S'Caterina-Leonardo.hex'
p372
sS'path'
p373
S'caterina'
p374
sS'unlock_bits'
p375
S'0x3F'
p376
ssS'upload'
p377
(dp378
S'speed'
p379
S'57600'
p380
sS'maximum_size'
p381
S'28672'
p382
sS'protocol'
p383
S'avr109'
p384
sS'disable_flushing'
p385
S'true'
p386
ssS'name'
p387
S'Arduino Leonardo'
p388
sg102
S'/usr/share/arduino/hardware/arduino'
p389
saa(lp390
S'mini328'
p391
a(dp392
S'build'
p393
(dp394
S'core'
p395
S'arduino'
p396
sS'mcu'
p397
S'atmega328p'
p398
sS'f_cpu'
p399
S'16000000L'
p400
sS'variant'
p401
S'eightanaloginputs'
p402
ssS'bootloader'
p403
(dp404
S'extended_fuses'
p405
S'0x05'
p406
sS'high_fuses'
p407
S'0xd8'
p408
sS'low_fuses'
p409
S'0xff'
p410
sS'lock_bits'
p411
S'0x0F'
p412
sS'file'
p413
S'optiboot_atmega328-Mini.hex'
p414
sS'path'
p415
S'optiboot'
p416
sS'unlock_bits'
p417
S'0x3F'
p418
ssS'upload'
p419
(dp420
S'speed'
p421
S'115200'
p422
sS'maximum_size'
p423
S'28672'
p424
sS'protocol'
p425
S'arduino'
p426
ssS'name'
p427
S'Arduino Mini w/ ATmega328'
p428
sg102
S'/usr/share/arduino/hardware/arduino'
p429
saa(lp430
S'mini'
p431
a(dp432
S'build'
p433
(dp434
S'core'
p435
S'arduino'
p436
sS'mcu'
p437
S'atmega168'
p438
sS'f_cpu'
p439
S'16000000L'
p440
sS'variant'
p441
S'eightanaloginputs'
p442
ssS'bootloader'
p443
(dp444
S'extended_fuses'
p445
S'0x00'
p446
sS'high_fuses'
p447
S'0xdd'
p448
sS'low_fuses'
p449
S'0xff'
p450
sS'lock_bits'
p451
S'0x0F'
p452
sS'file'
p453
S'ATmegaBOOT_168_ng.hex'
p454
sS'path'
p455
S'atmega'
p456
sS'unlock_bits'
p457
S'0x3F'
p458
ssS'upload'
p459
(dp460
S'speed'
p461
S'19200'
p462
sS'maximum_size'
p463
S'14336'
p464
sS'protocol'
p465
S'arduino'
p466
ssS'name'
p467
S'Arduino Mini w/ ATmega168'
p468
sg102
S'/usr/share/arduino/hardware/arduino'
p469
saa(lp470
S'ethernet'
p471
a(dp472
S'build'
p473
(dp474
S'f_cpu'
p475
S'16000000L'
p476
sS'mcu'
p477
S'atmega328p'
p478
sS'variant'
p479
S'standard'
p480
sS'core'
p481
S'arduino'
p482
ssS'bootloader'
p483
(dp484
S'extended_fuses'
p485
S'0x05'
p486
sS'high_fuses'
p487
S'0xde'
p488
sS'low_fuses'
p489
S'0xff'
p490
sS'lock_bits'
p491
S'0x0F'
p492
sS'file'
p493
S'optiboot_atmega328.hex'
p494
sS'path'
p495
S'optiboot'
p496
sS'unlock_bits'
p497
S'0x3F'
p498
ssS'upload'
p499
(dp500
S'speed'
p501
S'115200'
p502
sS'maximum_size'
p503
S'32256'
p504
sS'protocol'
p505
S'arduino'
p506
ssS'name'
p507
S'Arduino Ethernet'
p508
sg102
S'/usr/share/arduino/hardware/arduino'
p509
saa(lp510
S'fio'
p511
a(dp512
S'build'
p513
(dp514
S'core'
p515
S'arduino'
p516
sS'mcu'
p517
S'atmega328p'
p518
sS'f_cpu'
p519
S'8000000L'
p520
sS'variant'
p521
S'eightanaloginputs'
p522
ssS'bootloader'
p523
(dp524
S'extended_fuses'
p525
S'0x05'
p526
sS'high_fuses'
p527
S'0xDA'
p528
sS'low_fuses'
p529
S'0xFF'
p530
sS'lock_bits'
p531
S'0x0F'
p532
sS'file'
p533
S'ATmegaBOOT_168_atmega328_pro_8MHz.hex'
p534
sS'path'
p535
S'arduino:atmega'
p536
sS'unlock_bits'
p537
S'0x3F'
p538
ssS'upload'
p539
(dp540
S'speed'
p541
S'57600'
p542
sS'maximum_size'
p543
S'30720'
p544
sS'protocol'
p545
S'arduino'
p546
ssS'name'
p547
S'Arduino Fio'
p548
sg102
S'/usr/share/arduino/hardware/arduino'
p549
saa(lp550
S'bt328'
p551
a(dp552
S'build'
p553
(dp554
S'core'
p555
S'arduino'
p556
sS'mcu'
p557
S'atmega328p'
p558
sS'f_cpu'
p559
S'16000000L'
p560
sS'variant'
p561
S'eightanaloginputs'
p562
ssS'bootloader'
p563
(dp564
S'extended_fuses'
p565
S'0x05'
p566
sS'high_fuses'
p567
S'0xd8'
p568
sS'low_fuses'
p569
S'0xff'
p570
sS'lock_bits'
p571
S'0x0F'
p572
sS'file'
p573
S'ATmegaBOOT_168_atmega328_bt.hex'
p574
sS'path'
p575
S'bt'
p576
sS'unlock_bits'
p577
S'0x3F'
p578
ssS'upload'
p579
(dp580
S'speed'
p581
S'19200'
p582
sS'maximum_size'
p583
S'28672'
p584
sS'protocol'
p585
S'arduino'
p586
sS'disable_flushing'
p587
S'true'
p588
ssS'name'
p589
S'Arduino BT w/ ATmega328'
p590
sg102
S'/usr/share/arduino/hardware/arduino'
p591
saa(lp592
S'bt'
p593
a(dp594
S'build'
p595
(dp596
S'core'
p597
S'arduino'
p598
sS'mcu'
p599
S'atmega168'
p600
sS'f_cpu'
p601
S'16000000L'
p602
sS'variant'
p603
S'eightanaloginputs'
p604
ssS'bootloader'
p605
(dp606
S'extended_fuses'
p607
S'0x00'
p608
sS'high_fuses'
p609
S'0xdd'
p610
sS'low_fuses'
p611
S'0xff'
p612
sS'lock_bits'
p613
S'0x0F'
p614
sS'file'
p615
S'ATmegaBOOT_168.hex'
p616
sS'path'
p617
S'bt'
p618
sS'unlock_bits'
p619
S'0x3F'
p620
ssS'upload'
p621
(dp622
S'speed'
p623
S'19200'
p624
sS'maximum_size'
p625
S'14336'
p626
sS'protocol'
p627
S'arduino'
p628
sS'disable_flushing'
p629
S'true'
p630
ssS'name'
p631
S'Arduino BT w/ ATmega168'
p632
sg102
S'/usr/share/arduino/hardware/arduino'
p633
saa(lp634
S'lilypad328'
p635
a(dp636
S'build'
p637
(dp638
S'core'
p639
S'arduino'
p640
sS'mcu'
p641
S'atmega328p'
p642
sS'f_cpu'
p643
S'8000000L'
p644
sS'variant'
p645
S'standard'
p646
ssS'bootloader'
p647
(dp648
S'extended_fuses'
p649
S'0x05'
p650
sS'high_fuses'
p651
S'0xDA'
p652
sS'low_fuses'
p653
S'0xFF'
p654
sS'lock_bits'
p655
S'0x0F'
p656
sS'file'
p657
S'ATmegaBOOT_168_atmega328_pro_8MHz.hex'
p658
sS'path'
p659
S'atmega'
p660
sS'unlock_bits'
p661
S'0x3F'
p662
ssS'upload'
p663
(dp664
S'speed'
p665
S'57600'
p666
sS'maximum_size'
p667
S'30720'
p668
sS'protocol'
p669
S'arduino'
p670
ssS'name'
p671
S'LilyPad Arduino w/ ATmega328'
p672
sg102
S'/usr/share/arduino/hardware/arduino'
p673
saa(lp674
S'lilypad'
p675
a(dp676
S'build'
p677
(dp678
S'core'
p679
S'arduino'
p680
sS'mcu'
p681
S'atmega168'
p682
sS'f_cpu'
p683
S'8000000L'
p684
sS'variant'
p685
S'standard'
p686
ssS'bootloader'
p687
(dp688
S'extended_fuses'
p689
S'0x00'
p690
sS'high_fuses'
p691
S'0xdd'
p692
sS'low_fuses'
p693
S'0xe2'
p694
sS'lock_bits'
p695
S'0x0F'
p696
sS'file'
p697
S'LilyPadBOOT_168.hex'
p698
sS'path'
p699
S'lilypad'
p700
sS'unlock_bits'
p701
S'0x3F'
p702
ssS'upload'
p703
(dp704
S'speed'
p705
S'19200'
p706
sS'maximum_size'
p707
S'14336'
p708
sS'protocol'
p709
S'arduino'
p710
ssS'name'
p711
S'LilyPad Arduino w/ ATmega168'
p712
sg102
S'/usr/share/arduino/hardware/arduino'
p713
saa(lp714
S'pro5v328'
p715
a(dp716
S'build'
p717
(dp718
S'core'
p719
S'arduino'
p720
sS'mcu'
p721
S'atmega328p'
p722
sS'f_cpu'
p723
S'16000000L'
p724
sS'variant'
p725
S'standard'
p726
ssS'bootloader'
p727
(dp728
S'extended_fuses'
p729
S'0x05'
p730
sS'high_fuses'
p731
S'0xDA'
p732
sS'low_fuses'
p733
S'0xFF'
p734
sS'lock_bits'
p735
S'0x0F'
p736
sS'file'
p737
S'ATmegaBOOT_168_atmega328.hex'
p738
sS'path'
p739
S'atmega'
p740
sS'unlock_bits'
p741
S'0x3F'
p742
ssS'upload'
p743
(dp744
S'speed'
p745
S'57600'
p746
sS'maximum_size'
p747
S'30720'
p748
sS'protocol'
p749
S'arduino'
p750
ssS'name'
p751
S'Arduino Pro or Pro Mini (5V, 16 MHz) w/ ATmega328'
p752
sg102
S'/usr/share/arduino/hardware/arduino'
p753
saa(lp754
S'pro5v'
p755
a(dp756
S'build'
p757
(dp758
S'core'
p759
S'arduino'
p760
sS'mcu'
p761
S'atmega168'
p762
sS'f_cpu'
p763
S'16000000L'
p764
sS'variant'
p765
S'standard'
p766
ssS'bootloader'
p767
(dp768
S'extended_fuses'
p769
S'0x00'
p770
sS'high_fuses'
p771
S'0xdd'
p772
sS'low_fuses'
p773
S'0xff'
p774
sS'lock_bits'
p775
S'0x0F'
p776
sS'file'
p777
S'ATmegaBOOT_168_diecimila.hex'
p778
sS'path'
p779
S'atmega'
p780
sS'unlock_bits'
p781
S'0x3F'
p782
ssS'upload'
p783
(dp784
S'speed'
p785
S'19200'
p786
sS'maximum_size'
p787
S'14336'
p788
sS'protocol'
p789
S'arduino'
p790
ssS'name'
p791
S'Arduino Pro or Pro Mini (5V, 16 MHz) w/ ATmega168'
p792
sg102
S'/usr/share/arduino/hardware/arduino'
p793
saa(lp794
S'pro328'
p795
a(dp796
S'build'
p797
(dp798
S'core'
p799
S'arduino'
p800
sS'mcu'
p801
S'atmega328p'
p802
sS'f_cpu'
p803
S'8000000L'
p804
sS'variant'
p805
S'standard'
p806
ssS'bootloader'
p807
(dp808
S'extended_fuses'
p809
S'0x05'
p810
sS'high_fuses'
p811
S'0xDA'
p812
sS'low_fuses'
p813
S'0xFF'
p814
sS'lock_bits'
p815
S'0x0F'
p816
sS'file'
p817
S'ATmegaBOOT_168_atmega328_pro_8MHz.hex'
p818
sS'path'
p819
S'atmega'
p820
sS'unlock_bits'
p821
S'0x3F'
p822
ssS'upload'
p823
(dp824
S'speed'
p825
S'57600'
p826
sS'maximum_size'
p827
S'30720'
p828
sS'protocol'
p829
S'arduino'
p830
ssS'name'
p831
S'Arduino Pro or Pro Mini (3.3V, 8 MHz) w/ ATmega328'
p832
sg102
S'/usr/share/arduino/hardware/arduino'
p833
saa(lp834
S'pro'
p835
a(dp836
S'build'
p837
(dp838
S'core'
p839
S'arduino'
p840
sS'mcu'
p841
S'atmega168'
p842
sS'f_cpu'
p843
S'8000000L'
p844
sS'variant'
p845
S'standard'
p846
ssS'bootloader'
p847
(dp848
S'extended_fuses'
p849
S'0x00'
p850
sS'high_fuses'
p851
S'0xdd'
p852
sS'low_fuses'
p853
S'0xc6'
p854
sS'lock_bits'
p855
S'0x0F'
p856
sS'file'
p857
S'ATmegaBOOT_168_pro_8MHz.hex'
p858
sS'path'
p859
S'atmega'
p860
sS'unlock_bits'
p861
S'0x3F'
p862
ssS'upload'
p863
(dp864
S'speed'
p865
S'19200'
p866
sS'maximum_size'
p867
S'14336'
p868
sS'protocol'
p869
S'arduino'
p870
ssS'name'
p871
S'Arduino Pro or Pro Mini (3.3V, 8 MHz) w/ ATmega168'
p872
sg102
S'/usr/share/arduino/hardware/arduino'
p873
saa(lp874
S'atmega168'
p875
a(dp876
S'build'
p877
(dp878
S'core'
p879
S'arduino'
p880
sS'mcu'
p881
S'atmega168'
p882
sS'f_cpu'
p883
S'16000000L'
p884
sS'variant'
p885
S'standard'
p886
ssS'bootloader'
p887
(dp888
S'extended_fuses'
p889
S'0x00'
p890
sS'high_fuses'
p891
S'0xdd'
p892
sS'low_fuses'
p893
S'0xff'
p894
sS'lock_bits'
p895
S'0x0F'
p896
sS'file'
p897
S'ATmegaBOOT_168_ng.hex'
p898
sS'path'
p899
S'atmega'
p900
sS'unlock_bits'
p901
S'0x3F'
p902
ssS'upload'
p903
(dp904
S'speed'
p905
S'19200'
p906
sS'maximum_size'
p907
S'14336'
p908
sS'protocol'
p909
S'arduino'
p910
ssS'name'
p911
S'Arduino NG or older w/ ATmega168'
p912
sg102
S'/usr/share/arduino/hardware/arduino'
p913
saa(lp914
S'atmega8'
p915
a(dp916
S'build'
p917
(dp918
S'core'
p919
S'arduino'
p920
sS'mcu'
p921
S'atmega8'
p922
sS'f_cpu'
p923
S'16000000L'
p924
sS'variant'
p925
S'standard'
p926
ssS'bootloader'
p927
(dp928
S'high_fuses'
p929
S'0xca'
p930
sS'low_fuses'
p931
S'0xdf'
p932
sS'lock_bits'
p933
S'0x0F'
p934
sS'file'
p935
S'ATmegaBOOT.hex'
p936
sS'path'
p937
S'atmega8'
p938
sS'unlock_bits'
p939
S'0x3F'
p940
ssS'upload'
p941
(dp942
S'speed'
p943
S'19200'
p944
sS'maximum_size'
p945
S'7168'
p946
sS'protocol'
p947
S'arduino'
p948
ssS'name'
p949
S'Arduino NG or older w/ ATmega8'
p950
sg102
S'/usr/share/arduino/hardware/arduino'
p951
saatp952
Rp953
(dp954
S'default'
p955
S'uno'
p956
sbtp957
a(S'used_libs'
p958
(lp959
S'/usr/share/arduino/hardware/arduino/cores/arduino'
p960
atp961
a(S'make'
p962
S'/usr/bin/make'
p963
tp964
a(S'arduino_libraries_dir'
p965
S'/usr/share/arduino/libraries'
p966
tp967
a(S'cxx'
p968
S'/usr/bin/avr-g++'
p969
tp970
a(S'cflags'
p971
g2
(g3
g4
(lp972
tp973
Rp974
tp975
a(S'cxxflags'
p976
g2
(g3
g4
(lp977
S'-fno-exceptions'
p978
atp979
Rp980
tp981
a(S'arduino_variants_dir'
p982
S'/usr/share/arduino/hardware/arduino/variants'
p983
tp984
a(S'stty'
p985
S'/bin/stty'
p986
tp987
a(S'version.txt'
p988
S'/usr/share/arduino/lib/version.txt'
p989
tp990
a(S'arduino_core_dir'
p991
g960
tp992
a(S'boards.txt'
p993
(lp994
S'/usr/share/arduino/hardware/arduino/boards.txt'
p995
atp996
a(S'avrdude.conf'
p997
S'/usr/share/arduino/hardware/tools/avrdude.conf'
p998
tp999
a(S'deps'
p1000
g2
(g3
g4
(lp1001
S'.build/diecimila/src/dependencies.d'
p1002
aS'.build/diecimila/arduino/dependencies.d'
p1003
atp1004
Rp1005
tp1006
a.